target datalayout = "e-m:e-p270:32:32-p271:32:32-p272:64:64-i64:64-i128:128-f80:128-n8:16:32:64-S128"
target triple = "x86_64-pc-linux-gnu"

%struct.Vec_Ptr_t_ = type { i32, i32, ptr }
%struct.Abc_Obj_t_ = type { ptr, ptr, i32, i32, %struct.Vec_Int_t_, %struct.Vec_Int_t_, %union.anon, %union.anon.0 }
%struct.Vec_Int_t_ = type { i32, i32, ptr }
%union.anon = type { ptr }
%union.anon.0 = type { ptr }
%struct.Abc_Ntk_t_ = type { i32, i32, ptr, ptr, ptr, ptr, ptr, ptr, ptr, ptr, ptr, ptr, ptr, [11 x i32], i32, i32, i32, i32, ptr, i32, ptr, ptr, i32, i32, i32, double, i32, %struct.Vec_Int_t_, ptr, ptr, ptr, ptr, ptr, float, i32, ptr, ptr, ptr, ptr, ptr, ptr, ptr, ptr, ptr, ptr, ptr, ptr, ptr, ptr, ptr, ptr, ptr, ptr, ptr, ptr, ptr, ptr }

; Function Attrs: inlinehint nounwind uwtable
define internal ptr @Vec_PtrEntry(ptr noundef %0, i32 noundef %1) #3 {
  %3 = alloca ptr, align 8
  %4 = alloca i32, align 4
  store ptr %0, ptr %3, align 8, !tbaa !10
  store i32 %1, ptr %4, align 4, !tbaa !8
  %5 = load ptr, ptr %3, align 8, !tbaa !10
  %6 = getelementptr inbounds nuw %struct.Vec_Ptr_t_, ptr %5, i32 0, i32 2
  %7 = load ptr, ptr %6, align 8, !tbaa !14
  %8 = load i32, ptr %4, align 4, !tbaa !8
  %9 = sext i32 %8 to i64
  %10 = getelementptr inbounds ptr, ptr %7, i64 %9
  %11 = load ptr, ptr %10, align 8, !tbaa !20
  ret ptr %11
}

; Function Attrs: inlinehint nounwind uwtable
define internal i32 @Abc_ObjIsLatch(ptr noundef %0) #3 {
  %2 = alloca ptr, align 8
  store ptr %0, ptr %2, align 8, !tbaa !12
  %3 = load ptr, ptr %2, align 8, !tbaa !12
  %4 = getelementptr inbounds nuw %struct.Abc_Obj_t_, ptr %3, i32 0, i32 3
  %5 = load i32, ptr %4, align 4
  %6 = and i32 %5, 15
  %7 = icmp eq i32 %6, 8
  %8 = zext i1 %7 to i32
  ret i32 %8
}

; Function Attrs: inlinehint nounwind uwtable
define internal ptr @Abc_NtkBox(ptr noundef %0, i32 noundef %1) #3 {
  %3 = alloca ptr, align 8
  %4 = alloca i32, align 4
  store ptr %0, ptr %3, align 8, !tbaa !3
  store i32 %1, ptr %4, align 4, !tbaa !8
  %5 = load ptr, ptr %3, align 8, !tbaa !3
  %6 = getelementptr inbounds nuw %struct.Abc_Ntk_t_, ptr %5, i32 0, i32 11
  %7 = load ptr, ptr %6, align 8, !tbaa !23
  %8 = load i32, ptr %4, align 4, !tbaa !8
  %9 = call ptr @Vec_PtrEntry(ptr noundef %7, i32 noundef %8)
  ret ptr %9
}

; Function Attrs: inlinehint nounwind uwtable
define internal ptr @Abc_NtkPo(ptr noundef %0, i32 noundef %1) #3 {
  %3 = alloca ptr, align 8
  %4 = alloca i32, align 4
  store ptr %0, ptr %3, align 8, !tbaa !3
  store i32 %1, ptr %4, align 4, !tbaa !8
  %5 = load ptr, ptr %3, align 8, !tbaa !3
  %6 = getelementptr inbounds nuw %struct.Abc_Ntk_t_, ptr %5, i32 0, i32 7
  %7 = load ptr, ptr %6, align 8, !tbaa !50
  %8 = load i32, ptr %4, align 4, !tbaa !8
  %9 = call ptr @Vec_PtrEntry(ptr noundef %7, i32 noundef %8)
  ret ptr %9
}

; Function Attrs: inlinehint nounwind uwtable
define internal i32 @Abc_NtkPoNum(ptr noundef %0) #3 {
  %2 = alloca ptr, align 8
  store ptr %0, ptr %2, align 8, !tbaa !3
  %3 = load ptr, ptr %2, align 8, !tbaa !3
  %4 = getelementptr inbounds nuw %struct.Abc_Ntk_t_, ptr %3, i32 0, i32 7
  %5 = load ptr, ptr %4, align 8, !tbaa !50
  %6 = call i32 @Vec_PtrSize(ptr noundef %5)
  ret i32 %6
}

; Function Attrs: inlinehint nounwind uwtable
define internal i32 @Abc_ObjIsNode(ptr noundef %0) #3 {
  %2 = alloca ptr, align 8
  store ptr %0, ptr %2, align 8, !tbaa !12
  %3 = load ptr, ptr %2, align 8, !tbaa !12
  %4 = getelementptr inbounds nuw %struct.Abc_Obj_t_, ptr %3, i32 0, i32 3
  %5 = load i32, ptr %4, align 4
  %6 = and i32 %5, 15
  %7 = icmp eq i32 %6, 7
  %8 = zext i1 %7 to i32
  ret i32 %8
}

; Function Attrs: inlinehint nounwind uwtable
define internal ptr @Abc_NtkObj(ptr noundef %0, i32 noundef %1) #3 {
  %3 = alloca ptr, align 8
  %4 = alloca i32, align 4
  store ptr %0, ptr %3, align 8, !tbaa !3
  store i32 %1, ptr %4, align 4, !tbaa !8
  %5 = load ptr, ptr %3, align 8, !tbaa !3
  %6 = getelementptr inbounds nuw %struct.Abc_Ntk_t_, ptr %5, i32 0, i32 5
  %7 = load ptr, ptr %6, align 8, !tbaa !38
  %8 = load i32, ptr %4, align 4, !tbaa !8
  %9 = call ptr @Vec_PtrEntry(ptr noundef %7, i32 noundef %8)
  ret ptr %9
}

; Function Attrs: inlinehint nounwind uwtable
define internal i32 @Vec_PtrSize(ptr noundef %0) #3 {
  %2 = alloca ptr, align 8
  store ptr %0, ptr %2, align 8, !tbaa !10
  %3 = load ptr, ptr %2, align 8, !tbaa !10
  %4 = getelementptr inbounds nuw %struct.Vec_Ptr_t_, ptr %3, i32 0, i32 1
  %5 = load i32, ptr %4, align 4, !tbaa !40
  ret i32 %5
}

; Function Attrs: nounwind uwtable
define internal void @Sim_SimulateSeqFrame(ptr noundef %0, ptr noundef %1, i32 noundef %2, i32 noundef %3, i32 noundef %4) #0 {
  %6 = alloca ptr, align 8
  %7 = alloca ptr, align 8
  %8 = alloca i32, align 4
  %9 = alloca i32, align 4
  %10 = alloca i32, align 4
  %11 = alloca ptr, align 8
  %12 = alloca i32, align 4
  %13 = alloca i32, align 4
  store ptr %0, ptr %6, align 8, !tbaa !10
  store ptr %1, ptr %7, align 8, !tbaa !3
  store i32 %2, ptr %8, align 4, !tbaa !8
  store i32 %3, ptr %9, align 4, !tbaa !8
  store i32 %4, ptr %10, align 4, !tbaa !8
  call void @llvm.lifetime.start.p0(i64 8, ptr %11) #5
  call void @llvm.lifetime.start.p0(i64 4, ptr %12) #5
  store i32 0, ptr %12, align 4, !tbaa !8
  br label %14

14:                                               ; preds = %43, %5
  %15 = load i32, ptr %12, align 4, !tbaa !8
  %16 = load ptr, ptr %7, align 8, !tbaa !3
  %17 = getelementptr inbounds nuw %struct.Abc_Ntk_t_, ptr %16, i32 0, i32 5
  %18 = load ptr, ptr %17, align 8, !tbaa !38
  %19 = call i32 @Vec_PtrSize(ptr noundef %18)
  %20 = icmp slt i32 %15, %19
  br i1 %20, label %21, label %25

21:                                               ; preds = %14
  %22 = load ptr, ptr %7, align 8, !tbaa !3
  %23 = load i32, ptr %12, align 4, !tbaa !8
  %24 = call ptr @Abc_NtkObj(ptr noundef %22, i32 noundef %23)
  store ptr %24, ptr %11, align 8, !tbaa !12
  br label %25

25:                                               ; preds = %21, %14
  %26 = phi i1 [ false, %14 ], [ true, %21 ]
  br i1 %26, label %27, label %46

27:                                               ; preds = %25
  %28 = load ptr, ptr %11, align 8, !tbaa !12
  %29 = icmp eq ptr %28, null
  br i1 %29, label %34, label %30

30:                                               ; preds = %27
  %31 = load ptr, ptr %11, align 8, !tbaa !12
  %32 = call i32 @Abc_ObjIsNode(ptr noundef %31)
  %33 = icmp ne i32 %32, 0
  br i1 %33, label %35, label %34

34:                                               ; preds = %30, %27
  br label %42

35:                                               ; preds = %30
  %36 = load ptr, ptr %11, align 8, !tbaa !12
  %37 = load ptr, ptr %6, align 8, !tbaa !10
  %38 = load i32, ptr %9, align 4, !tbaa !8
  %39 = load i32, ptr %8, align 4, !tbaa !8
  %40 = load i32, ptr %9, align 4, !tbaa !8
  %41 = mul nsw i32 %39, %40
  call void @Sim_UtilSimulateNodeOne(ptr noundef %36, ptr noundef %37, i32 noundef %38, i32 noundef %41)
  br label %42

42:                                               ; preds = %35, %34
  br label %43

43:                                               ; preds = %42
  %44 = load i32, ptr %12, align 4, !tbaa !8
  %45 = add nsw i32 %44, 1
  store i32 %45, ptr %12, align 4, !tbaa !8
  br label %14, !llvm.loop !42

46:                                               ; preds = %25
  store i32 0, ptr %12, align 4, !tbaa !8
  br label %47

47:                                               ; preds = %65, %46
  %48 = load i32, ptr %12, align 4, !tbaa !8
  %49 = load ptr, ptr %7, align 8, !tbaa !3
  %50 = call i32 @Abc_NtkPoNum(ptr noundef %49)
  %51 = icmp slt i32 %48, %50
  br i1 %51, label %52, label %56

52:                                               ; preds = %47
  %53 = load ptr, ptr %7, align 8, !tbaa !3
  %54 = load i32, ptr %12, align 4, !tbaa !8
  %55 = call ptr @Abc_NtkPo(ptr noundef %53, i32 noundef %54)
  store ptr %55, ptr %11, align 8, !tbaa !12
  br label %56

56:                                               ; preds = %52, %47
  %57 = phi i1 [ false, %47 ], [ true, %52 ]
  br i1 %57, label %58, label %68

58:                                               ; preds = %56
  %59 = load ptr, ptr %11, align 8, !tbaa !12
  %60 = load ptr, ptr %6, align 8, !tbaa !10
  %61 = load i32, ptr %9, align 4, !tbaa !8
  %62 = load i32, ptr %8, align 4, !tbaa !8
  %63 = load i32, ptr %9, align 4, !tbaa !8
  %64 = mul nsw i32 %62, %63
  call void @Sim_UtilTransferNodeOne(ptr noundef %59, ptr noundef %60, i32 noundef %61, i32 noundef %64, i32 noundef 0)
  br label %65

65:                                               ; preds = %58
  %66 = load i32, ptr %12, align 4, !tbaa !8
  %67 = add nsw i32 %66, 1
  store i32 %67, ptr %12, align 4, !tbaa !8
  br label %47, !llvm.loop !43

68:                                               ; preds = %56
  %69 = load i32, ptr %10, align 4, !tbaa !8
  %70 = icmp ne i32 %69, 0
  br i1 %70, label %72, label %71

71:                                               ; preds = %68
  store i32 1, ptr %13, align 4
  br label %103

72:                                               ; preds = %68
  store i32 0, ptr %12, align 4, !tbaa !8
  br label %73

73:                                               ; preds = %99, %72
  %74 = load i32, ptr %12, align 4, !tbaa !8
  %75 = load ptr, ptr %7, align 8, !tbaa !3
  %76 = getelementptr inbounds nuw %struct.Abc_Ntk_t_, ptr %75, i32 0, i32 11
  %77 = load ptr, ptr %76, align 8, !tbaa !23
  %78 = call i32 @Vec_PtrSize(ptr noundef %77)
  %79 = icmp slt i32 %74, %78
  br i1 %79, label %80, label %84

80:                                               ; preds = %73
  %81 = load ptr, ptr %7, align 8, !tbaa !3
  %82 = load i32, ptr %12, align 4, !tbaa !8
  %83 = call ptr @Abc_NtkBox(ptr noundef %81, i32 noundef %82)
  store ptr %83, ptr %11, align 8, !tbaa !12
  br label %84

84:                                               ; preds = %80, %73
  %85 = phi i1 [ false, %73 ], [ true, %80 ]
  br i1 %85, label %86, label %102

86:                                               ; preds = %84
  %87 = load ptr, ptr %11, align 8, !tbaa !12
  %88 = call i32 @Abc_ObjIsLatch(ptr noundef %87)
  %89 = icmp ne i32 %88, 0
  br i1 %89, label %91, label %90

90:                                               ; preds = %86
  br label %98

91:                                               ; preds = %86
  %92 = load ptr, ptr %11, align 8, !tbaa !12
  %93 = load ptr, ptr %6, align 8, !tbaa !10
  %94 = load i32, ptr %9, align 4, !tbaa !8
  %95 = load i32, ptr %8, align 4, !tbaa !8
  %96 = load i32, ptr %9, align 4, !tbaa !8
  %97 = mul nsw i32 %95, %96
  call void @Sim_UtilTransferNodeOne(ptr noundef %92, ptr noundef %93, i32 noundef %94, i32 noundef %97, i32 noundef 1)
  br label %98

98:                                               ; preds = %91, %90
  br label %99

99:                                               ; preds = %98
  %100 = load i32, ptr %12, align 4, !tbaa !8
  %101 = add nsw i32 %100, 1
  store i32 %101, ptr %12, align 4, !tbaa !8
  br label %73, !llvm.loop !44

102:                                              ; preds = %84
  store i32 0, ptr %13, align 4
  br label %103

103:                                              ; preds = %102, %71
  call void @llvm.lifetime.end.p0(i64 4, ptr %12) #5
  call void @llvm.lifetime.end.p0(i64 8, ptr %11) #5
  %104 = load i32, ptr %13, align 4
  switch i32 %104, label %106 [
    i32 0, label %105
    i32 1, label %105
  ]

105:                                              ; preds = %103, %103
  ret void

106:                                              ; preds = %103
  unreachable
}