; Function Attrs: nounwind uwtable
define internal fastcc void @Sim_SimulateSeqFrame(ptr noundef %0, ptr noundef readonly captures(none) %1, i32 noundef %2, i32 noundef %3, i32 noundef range(i32 0, 2) %4) unnamed_addr #0 {
  %6 = getelementptr inbounds nuw i8, ptr %1, i64 32
  %7 = load ptr, ptr %6, align 8, !tbaa !3
  %8 = getelementptr i8, ptr %7, i64 4
  %.val4049 = load i32, ptr %8, align 4, !tbaa !24
  %9 = icmp sgt i32 %.val4049, 0
  br i1 %9, label %.lr.ph, label %.critedge.preheader

.lr.ph:                                           ; preds = %5
  %10 = mul nsw i32 %3, %2
  br label %15

.critedge.preheader:                              ; preds = %25, %5
  %11 = getelementptr i8, ptr %1, i64 48
  %.val4551 = load ptr, ptr %11, align 8, !tbaa !38
  %12 = getelementptr i8, ptr %.val4551, i64 4
  %.val45.val52 = load i32, ptr %12, align 4, !tbaa !24
  %13 = icmp sgt i32 %.val45.val52, 0
  br i1 %13, label %.lr.ph55, label %.critedge2

.lr.ph55:                                         ; preds = %.critedge.preheader
  %14 = mul nsw i32 %3, %2
  br label %.critedge

15:                                               ; preds = %.lr.ph, %25
  %16 = phi ptr [ %7, %.lr.ph ], [ %26, %25 ]
  %indvars.iv = phi i64 [ 0, %.lr.ph ], [ %indvars.iv.next, %25 ]
  %17 = getelementptr i8, ptr %16, i64 8
  %.val43.val = load ptr, ptr %17, align 8, !tbaa !26
  %18 = getelementptr inbounds nuw ptr, ptr %.val43.val, i64 %indvars.iv
  %19 = load ptr, ptr %18, align 8, !tbaa !30
  %20 = icmp eq ptr %19, null
  br i1 %20, label %25, label %21

21:                                               ; preds = %15
  %22 = getelementptr i8, ptr %19, i64 20
  %.val44 = load i32, ptr %22, align 4
  %23 = and i32 %.val44, 15
  %.not48 = icmp eq i32 %23, 7
  br i1 %.not48, label %24, label %25

24:                                               ; preds = %21
  tail call void @Sim_UtilSimulateNodeOne(ptr noundef nonnull %19, ptr noundef %0, i32 noundef %3, i32 noundef %10) #3
  %.pre = load ptr, ptr %6, align 8, !tbaa !3
  br label %25

25:                                               ; preds = %24, %21, %15
  %26 = phi ptr [ %.pre, %24 ], [ %16, %21 ], [ %16, %15 ]
  %indvars.iv.next = add nuw nsw i64 %indvars.iv, 1
  %27 = getelementptr i8, ptr %26, i64 4
  %.val40 = load i32, ptr %27, align 4, !tbaa !24
  %28 = sext i32 %.val40 to i64
  %29 = icmp slt i64 %indvars.iv.next, %28
  br i1 %29, label %15, label %.critedge.preheader, !llvm.loop !39

.critedge:                                        ; preds = %.lr.ph55, %.critedge
  %indvars.iv60 = phi i64 [ 0, %.lr.ph55 ], [ %indvars.iv.next61, %.critedge ]
  %.val4554 = phi ptr [ %.val4551, %.lr.ph55 ], [ %.val45, %.critedge ]
  %30 = getelementptr i8, ptr %.val4554, i64 8
  %.val46.val = load ptr, ptr %30, align 8, !tbaa !26
  %31 = getelementptr inbounds nuw ptr, ptr %.val46.val, i64 %indvars.iv60
  %32 = load ptr, ptr %31, align 8, !tbaa !30
  tail call void @Sim_UtilTransferNodeOne(ptr noundef %32, ptr noundef %0, i32 noundef %3, i32 noundef %14, i32 noundef 0) #3
  %indvars.iv.next61 = add nuw nsw i64 %indvars.iv60, 1
  %.val45 = load ptr, ptr %11, align 8, !tbaa !38
  %33 = getelementptr i8, ptr %.val45, i64 4
  %.val45.val = load i32, ptr %33, align 4, !tbaa !24
  %34 = sext i32 %.val45.val to i64
  %35 = icmp slt i64 %indvars.iv.next61, %34
  br i1 %35, label %.critedge, label %.critedge2, !llvm.loop !40

.critedge2:                                       ; preds = %.critedge, %.critedge.preheader
  %.not = icmp eq i32 %4, 0
  br i1 %.not, label %.critedge4, label %.preheader

.preheader:                                       ; preds = %.critedge2
  %36 = getelementptr inbounds nuw i8, ptr %1, i64 80
  %37 = load ptr, ptr %36, align 8, !tbaa !32
  %38 = getelementptr i8, ptr %37, i64 4
  %.val56 = load i32, ptr %38, align 4, !tbaa !24
  %39 = icmp sgt i32 %.val56, 0
  br i1 %39, label %.lr.ph58, label %.critedge4

.lr.ph58:                                         ; preds = %.preheader
  %40 = mul nsw i32 %3, %2
  br label %41

41:                                               ; preds = %.lr.ph58, %49
  %42 = phi ptr [ %37, %.lr.ph58 ], [ %50, %49 ]
  %indvars.iv63 = phi i64 [ 0, %.lr.ph58 ], [ %indvars.iv.next64, %49 ]
  %43 = getelementptr i8, ptr %42, i64 8
  %.val41.val = load ptr, ptr %43, align 8, !tbaa !26
  %44 = getelementptr inbounds nuw ptr, ptr %.val41.val, i64 %indvars.iv63
  %45 = load ptr, ptr %44, align 8, !tbaa !30
  %46 = getelementptr i8, ptr %45, i64 20
  %.val42 = load i32, ptr %46, align 4
  %47 = and i32 %.val42, 15
  %.not47 = icmp eq i32 %47, 8
  br i1 %.not47, label %48, label %49

48:                                               ; preds = %41
  tail call void @Sim_UtilTransferNodeOne(ptr noundef nonnull %45, ptr noundef %0, i32 noundef %3, i32 noundef %40, i32 noundef 1) #3
  %.pre66 = load ptr, ptr %36, align 8, !tbaa !32
  br label %49

49:                                               ; preds = %48, %41
  %50 = phi ptr [ %.pre66, %48 ], [ %42, %41 ]
  %indvars.iv.next64 = add nuw nsw i64 %indvars.iv63, 1
  %51 = getelementptr i8, ptr %50, i64 4
  %.val = load i32, ptr %51, align 4, !tbaa !24
  %52 = sext i32 %.val to i64
  %53 = icmp slt i64 %indvars.iv.next64, %52
  br i1 %53, label %41, label %.critedge4, !llvm.loop !41

.critedge4:                                       ; preds = %49, %.preheader, %.critedge2
  ret void
}